Certificate:
    Data:
        Version: 3 (0x2)
        Serial Number: 4096 (0x1000)
        Signature Algorithm: sha256WithRSAEncryption
        Issuer: C=US, ST=Florida, L=Gator Town, O=MIG, OU=CA
        Validity
            Not Before: Nov 18 23:16:36 2015 GMT
            Not After : Nov 17 23:16:36 2018 GMT
        Subject: C=US, ST=Florida, L=Gator Town, O=MIG, OU=RabbitMQ Relay, CN=mig
        Subject Public Key Info:
            Public Key Algorithm: rsaEncryption
            RSA Public Key: (2048 bit)
                Modulus (2048 bit):
                    00:e1:58:05:94:41:ce:88:7b:54:70:7b:ae:02:1c:
                    52:bd:a0:5a:b2:00:7c:79:de:39:31:fd:9c:1e:1c:
                    af:c1:a1:24:89:9e:2e:b9:c4:81:7f:cb:9b:d2:66:
                    f6:34:84:e1:3c:fb:36:bf:1b:12:9c:0b:d7:ba:0b:
                    02:d3:93:58:30:75:c4:c2:e5:83:e7:01:b7:64:ee:
                    37:f6:b8:8a:5f:d7:35:93:c2:16:c2:0d:ea:c6:ea:
                    34:ac:b7:10:84:be:6d:04:d8:d4:f3:d3:40:6d:19:
                    84:c2:a4:af:d9:32:da:74:56:a0:5f:7a:66:c7:a0:
                    74:9d:5b:a1:26:b7:01:a0:46:09:d1:c5:a9:b8:59:
                    a6:05:7b:9c:ed:e6:d5:7e:de:f2:e5:16:fa:70:b4:
                    d2:8f:51:37:54:0b:ef:a2:68:ae:e8:b9:65:e5:a4:
                    77:43:e1:cb:03:03:cc:aa:84:f1:84:ee:88:0d:1b:
                    c6:95:92:16:56:e1:c4:94:b6:d4:30:d2:a8:39:59:
                    5c:c1:da:18:6d:74:51:d5:5a:31:7b:6a:fc:64:af:
                    1b:97:b2:aa:75:9a:01:04:0b:e0:7d:00:38:39:79:
                    fb:ad:a1:2c:82:c4:f6:59:46:f2:4b:8e:84:42:71:
                    59:d2:54:bc:50:08:09:03:ff:26:dd:4f:72:3d:a7:
                    14:49
                Exponent: 65537 (0x10001)
        X509v3 extensions:
            X509v3 Authority Key Identifier: 
                keyid:9C:F9:D2:4D:C0:D4:23:2A:E2:88:29:6E:5F:1D:07:10:46:A9:98:60
                DirName:/C=US/ST=Florida/L=Gator Town/O=MIG/OU=CA
                serial:BF:72:0E:AD:3F:70:30:E0

            X509v3 Issuer Alternative Name: 
                <EMPTY>

            X509v3 Extended Key Usage: 
                TLS Web Server Authentication, TLS Web Client Authentication, Microsoft Server Gated Crypto, Netscape Server Gated Crypto
            X509v3 Basic Constraints: critical
                CA:FALSE
            X509v3 Key Usage: 
                Digital Signature, Non Repudiation, Key Encipherment
            Netscape Cert Type: 
                SSL Client, SSL Server
    Signature Algorithm: sha256WithRSAEncryption
        4a:11:6a:6c:c2:5e:d1:29:5d:c5:ae:03:32:a4:5d:fa:cc:36:
        19:60:44:df:cc:f5:00:a5:ca:2d:50:3b:ab:66:34:fc:fd:3f:
        04:e9:53:4c:68:cf:17:aa:aa:f4:a9:0f:f4:ed:6d:26:a3:f4:
        c8:72:29:98:85:c7:23:be:13:8a:3c:21:b1:23:ba:2b:b0:6b:
        a6:b6:b2:84:54:e5:2a:e5:aa:ea:a4:54:b7:4d:04:9d:4f:07:
        93:de:0c:e0:32:4c:6e:86:ad:ad:68:3e:72:3a:5e:7f:26:d8:
        b6:14:90:77:1a:71:b9:03:11:a8:fb:e2:bf:9d:af:c9:96:57:
        ad:68:73:f7:67:fe:94:10:bc:0f:ce:ba:52:37:19:d9:ea:03:
        f7:05:4b:62:48:9b:08:1d:38:e2:09:8f:ca:b2:b9:21:1a:fe:
        3d:99:4c:b9:eb:ab:05:2b:2c:6e:26:a3:07:d0:7e:32:23:af:
        e1:c0:06:8a:44:bc:82:14:8e:2f:de:6a:f5:56:ba:5a:4b:4c:
        bb:d5:4f:2d:07:6b:ef:79:48:20:f5:13:20:10:46:45:5e:b2:
        80:5c:0d:73:06:ee:d6:93:b8:c5:75:8a:f0:77:b8:cc:f6:25:
        21:17:c9:40:f9:c8:c9:63:6a:7a:6f:2f:79:56:b3:4b:5f:10:
        dd:df:aa:e7
-----BEGIN CERTIFICATE-----
MIIEKDCCAxCgAwIBAgICEAAwDQYJKoZIhvcNAQELBQAwTzELMAkGA1UEBhMCVVMx
EDAOBgNVBAgMB0Zsb3JpZGExEzARBgNVBAcMCkdhdG9yIFRvd24xDDAKBgNVBAoM
A01JRzELMAkGA1UECwwCQ0EwHhcNMTUxMTE4MjMxNjM2WhcNMTgxMTE3MjMxNjM2
WjBpMQswCQYDVQQGEwJVUzEQMA4GA1UECAwHRmxvcmlkYTETMBEGA1UEBwwKR2F0
b3IgVG93bjEMMAoGA1UECgwDTUlHMRcwFQYDVQQLDA5SYWJiaXRNUSBSZWxheTEM
MAoGA1UEAwwDbWlnMIIBIjANBgkqhkiG9w0BAQEFAAOCAQ8AMIIBCgKCAQEA4VgF
lEHOiHtUcHuuAhxSvaBasgB8ed45Mf2cHhyvwaEkiZ4uucSBf8ub0mb2NIThPPs2
vxsSnAvXugsC05NYMHXEwuWD5wG3ZO439riKX9c1k8IWwg3qxuo0rLcQhL5tBNjU
89NAbRmEwqSv2TLadFagX3pmx6B0nVuhJrcBoEYJ0cWpuFmmBXuc7ebVft7y5Rb6
cLTSj1E3VAvvomiu6Lll5aR3Q+HLAwPMqoTxhO6IDRvGlZIWVuHElLbUMNKoOVlc
wdoYbXRR1Voxe2r8ZK8bl7KqdZoBBAvgfQA4OXn7raEsgsT2WUbyS46EQnFZ0lS8
UAgJA/8m3U9yPacUSQIDAQABo4HzMIHwMH8GA1UdIwR4MHaAFJz50k3A1CMq4ogp
bl8dBxBGqZhgoVOkUTBPMQswCQYDVQQGEwJVUzEQMA4GA1UECAwHRmxvcmlkYTET
MBEGA1UEBwwKR2F0b3IgVG93bjEMMAoGA1UECgwDTUlHMQswCQYDVQQLDAJDQYIJ
AL9yDq0/cDDgMAkGA1UdEgQCMAAwNAYDVR0lBC0wKwYIKwYBBQUHAwEGCCsGAQUF
BwMCBgorBgEEAYI3CgMDBglghkgBhvhCBAEwDAYDVR0TAQH/BAIwADALBgNVHQ8E
BAMCBeAwEQYJYIZIAYb4QgEBBAQDAgbAMA0GCSqGSIb3DQEBCwUAA4IBAQBKEWps
wl7RKV3FrgMypF36zDYZYETfzPUApcotUDurZjT8/T8E6VNMaM8Xqqr0qQ/07W0m
o/TIcimYhccjvhOKPCGxI7orsGumtrKEVOUq5arqpFS3TQSdTweT3gzgMkxuhq2t
aD5yOl5/Jti2FJB3GnG5AxGo++K/na/JlletaHP3Z/6UELwPzrpSNxnZ6gP3BUti
SJsIHTjiCY/KsrkhGv49mUy566sFKyxuJqMH0H4yI6/hwAaKRLyCFI4v3mr1Vrpa
S0y71U8tB2vveUgg9RMgEEZFXrKAXA1zBu7Wk7jFdYrwd7jM9iUhF8lA+cjJY2p6
by95VrNLXxDd36rn
-----END CERTIFICATE-----
