Certificate:
    Data:
        Version: 3 (0x2)
        Serial Number: 4098 (0x1002)
        Signature Algorithm: sha256WithRSAEncryption
        Issuer: C=US, ST=Florida, L=Gator Town, O=MIG, OU=CA
        Validity
            Not Before: Nov 18 23:16:54 2015 GMT
            Not After : Nov 17 23:16:54 2018 GMT
        Subject: C=US, ST=Florida, L=Gator Town, O=MIG, OU=worker, CN=worker.
        Subject Public Key Info:
            Public Key Algorithm: rsaEncryption
            RSA Public Key: (2048 bit)
                Modulus (2048 bit):
                    00:ab:68:9f:ac:1a:f0:ee:c6:e6:d2:14:7d:9a:ed:
                    de:a6:76:f2:b3:11:ef:b6:a9:45:d9:f4:cc:8b:5b:
                    54:d7:49:e3:70:d3:52:29:0b:6b:b4:63:59:37:7d:
                    24:53:ed:ec:df:35:d2:24:94:ae:d7:ac:de:58:ae:
                    0b:fb:ad:d6:ac:0e:a0:4f:ed:54:89:a5:13:22:26:
                    2a:64:b5:7c:c7:66:79:3f:c7:cc:b5:57:8a:48:c7:
                    98:9b:6f:fd:75:0b:bd:9a:61:03:f1:c2:8b:0c:2f:
                    99:e5:fb:6b:9c:3d:2d:83:0c:a7:a0:66:f6:96:e7:
                    15:96:de:ba:fa:c5:6c:8c:29:f6:8a:5f:01:2b:1d:
                    26:52:6d:13:f9:c3:50:33:f4:d0:0c:00:4c:46:0c:
                    73:ad:3d:8b:c9:66:85:3f:95:1e:90:31:51:df:f0:
                    c1:a7:cb:99:40:6c:31:67:16:fa:a5:b2:c4:26:18:
                    2b:9e:22:8e:8e:c0:74:af:09:47:8e:c1:bb:be:33:
                    c3:d1:24:f2:5a:1a:7a:b3:a2:5b:1c:1a:e2:fc:b0:
                    d6:e3:80:68:e6:8d:cd:c7:0a:2e:c6:9e:cb:c0:a9:
                    84:45:42:5e:0d:5e:1a:76:bc:2e:09:5c:6a:bc:c1:
                    8c:51:2d:52:a9:e0:13:99:86:69:95:91:6c:c0:96:
                    af:29
                Exponent: 65537 (0x10001)
        X509v3 extensions:
            X509v3 Authority Key Identifier: 
                keyid:9C:F9:D2:4D:C0:D4:23:2A:E2:88:29:6E:5F:1D:07:10:46:A9:98:60
                DirName:/C=US/ST=Florida/L=Gator Town/O=MIG/OU=CA
                serial:BF:72:0E:AD:3F:70:30:E0

            X509v3 Issuer Alternative Name: 
                <EMPTY>

            X509v3 Extended Key Usage: 
                TLS Web Server Authentication, TLS Web Client Authentication, Microsoft Server Gated Crypto, Netscape Server Gated Crypto
            X509v3 Basic Constraints: critical
                CA:FALSE
            X509v3 Key Usage: 
                Digital Signature, Non Repudiation, Key Encipherment
            Netscape Cert Type: 
                SSL Client, SSL Server
    Signature Algorithm: sha256WithRSAEncryption
        35:85:02:b6:2b:9b:7a:7e:81:d5:ec:e4:38:0f:18:3d:8b:36:
        b3:70:b1:3e:5c:94:c2:dc:45:ba:c7:2b:f6:e7:08:57:10:ea:
        0d:06:28:61:41:23:79:51:95:b7:a5:7a:c3:c8:67:17:07:88:
        8b:4b:50:d6:2b:b2:b7:04:1d:63:3c:cd:2b:f2:6a:99:6d:3e:
        78:fa:97:72:43:ae:b4:b0:73:32:cb:46:91:f3:f4:18:ad:71:
        6d:51:ed:a5:86:d6:49:ed:88:0c:cb:b7:20:65:53:47:19:55:
        b8:dd:36:a0:bf:99:e5:13:d8:c8:a3:ec:f0:01:6b:c8:7e:7a:
        92:38:71:96:40:fd:62:c8:ba:82:5d:d8:c5:e0:90:91:9a:7d:
        85:9c:27:6e:80:20:f2:c2:06:56:78:ea:a0:77:49:ac:e0:97:
        de:a4:f4:09:63:46:fd:ee:56:05:86:4c:f8:5d:30:f8:aa:c0:
        6a:9a:0f:27:ae:2f:3a:b7:05:67:27:c8:38:05:23:18:1a:21:
        40:12:cd:c0:a5:d6:0c:e7:e8:9a:35:1d:b0:a1:88:88:18:28:
        f5:0d:2d:d9:25:83:53:74:70:bb:01:a8:79:76:db:3e:84:4c:
        4c:8a:b1:c3:0d:e1:3e:4d:ff:50:42:6d:1d:1c:fb:ef:04:1a:
        23:c6:c6:94
-----BEGIN CERTIFICATE-----
MIIEJDCCAwygAwIBAgICEAIwDQYJKoZIhvcNAQELBQAwTzELMAkGA1UEBhMCVVMx
EDAOBgNVBAgMB0Zsb3JpZGExEzARBgNVBAcMCkdhdG9yIFRvd24xDDAKBgNVBAoM
A01JRzELMAkGA1UECwwCQ0EwHhcNMTUxMTE4MjMxNjU0WhcNMTgxMTE3MjMxNjU0
WjBlMQswCQYDVQQGEwJVUzEQMA4GA1UECAwHRmxvcmlkYTETMBEGA1UEBwwKR2F0
b3IgVG93bjEMMAoGA1UECgwDTUlHMQ8wDQYDVQQLDAZ3b3JrZXIxEDAOBgNVBAMM
B3dvcmtlci4wggEiMA0GCSqGSIb3DQEBAQUAA4IBDwAwggEKAoIBAQCraJ+sGvDu
xubSFH2a7d6mdvKzEe+2qUXZ9MyLW1TXSeNw01IpC2u0Y1k3fSRT7ezfNdIklK7X
rN5Yrgv7rdasDqBP7VSJpRMiJipktXzHZnk/x8y1V4pIx5ibb/11C72aYQPxwosM
L5nl+2ucPS2DDKegZvaW5xWW3rr6xWyMKfaKXwErHSZSbRP5w1Az9NAMAExGDHOt
PYvJZoU/lR6QMVHf8MGny5lAbDFnFvqlssQmGCueIo6OwHSvCUeOwbu+M8PRJPJa
GnqzolscGuL8sNbjgGjmjc3HCi7GnsvAqYRFQl4NXhp2vC4JXGq8wYxRLVKp4BOZ
hmmVkWzAlq8pAgMBAAGjgfMwgfAwfwYDVR0jBHgwdoAUnPnSTcDUIyriiCluXx0H
EEapmGChU6RRME8xCzAJBgNVBAYTAlVTMRAwDgYDVQQIDAdGbG9yaWRhMRMwEQYD
VQQHDApHYXRvciBUb3duMQwwCgYDVQQKDANNSUcxCzAJBgNVBAsMAkNBggkAv3IO
rT9wMOAwCQYDVR0SBAIwADA0BgNVHSUELTArBggrBgEFBQcDAQYIKwYBBQUHAwIG
CisGAQQBgjcKAwMGCWCGSAGG+EIEATAMBgNVHRMBAf8EAjAAMAsGA1UdDwQEAwIF
4DARBglghkgBhvhCAQEEBAMCBsAwDQYJKoZIhvcNAQELBQADggEBADWFArYrm3p+
gdXs5DgPGD2LNrNwsT5clMLcRbrHK/bnCFcQ6g0GKGFBI3lRlbelesPIZxcHiItL
UNYrsrcEHWM8zSvyapltPnj6l3JDrrSwczLLRpHz9BitcW1R7aWG1kntiAzLtyBl
U0cZVbjdNqC/meUT2Mij7PABa8h+epI4cZZA/WLIuoJd2MXgkJGafYWcJ26AIPLC
BlZ46qB3Sazgl96k9AljRv3uVgWGTPhdMPiqwGqaDyeuLzq3BWcnyDgFIxgaIUAS
zcCl1gzn6Jo1HbChiIgYKPUNLdklg1N0cLsBqHl22z6ETEyKscMN4T5N/1BCbR0c
++8EGiPGxpQ=
-----END CERTIFICATE-----
