Certificate:
    Data:
        Version: 3 (0x2)
        Serial Number: 4099 (0x1003)
        Signature Algorithm: sha256WithRSAEncryption
        Issuer: C=US, ST=Florida, L=Gator Town, O=MIG, OU=CA
        Validity
            Not Before: Nov 17 16:03:12 2015 GMT
            Not After : Nov 16 16:03:12 2018 GMT
        Subject: C=US, ST=Florida, L=Gator Town, O=MIG, OU=agent, CN=agent.
        Subject Public Key Info:
            Public Key Algorithm: rsaEncryption
            RSA Public Key: (2048 bit)
                Modulus (2048 bit):
                    00:fa:4d:7e:39:bb:d4:87:57:af:5a:7d:12:6a:6c:
                    8b:ed:7a:bd:e0:06:a1:0b:86:14:40:7a:3e:cf:92:
                    4c:47:c8:ba:76:e2:2e:3a:06:67:97:be:5f:b4:1c:
                    0f:b7:c5:5c:cb:dc:d6:06:0f:c8:9c:de:51:aa:2d:
                    71:9b:b1:6b:89:b1:e1:4b:04:03:74:02:28:16:af:
                    b4:fa:e2:6e:0b:23:66:a2:2c:e3:18:63:29:fc:f4:
                    50:67:76:08:aa:24:78:0e:76:b2:57:c4:f9:a9:60:
                    b9:c4:8d:d1:3b:3e:d4:11:5a:00:e1:2a:2f:6f:a2:
                    0c:96:95:99:38:05:88:3f:13:99:96:0a:ca:de:85:
                    50:0b:14:3c:59:4e:b3:57:cc:73:c3:5b:dd:27:a4:
                    be:bf:e6:bb:07:70:57:ee:64:30:e1:7f:88:89:ae:
                    6e:e1:09:ff:d1:c4:52:56:ae:20:1b:af:94:8a:1f:
                    e2:7f:db:9d:25:b8:ac:06:c7:0e:aa:3f:68:2b:87:
                    de:8d:3a:7e:7a:2c:c6:bc:bc:80:ff:07:38:ac:b8:
                    72:5e:38:39:d0:ce:ed:9d:88:c8:02:eb:df:c2:23:
                    d6:52:c1:7a:e0:73:43:ed:70:85:93:78:b3:50:d4:
                    b0:70:5d:ea:c8:32:15:5b:5a:d0:a6:d5:9e:55:cb:
                    5c:bd
                Exponent: 65537 (0x10001)
        X509v3 extensions:
            X509v3 Authority Key Identifier: 
                keyid:EE:32:4E:67:4D:3C:29:29:19:7B:E7:18:80:5F:51:68:98:2C:85:BB
                DirName:/C=US/ST=Florida/L=Gator Town/O=MIG/OU=CA
                serial:BA:1D:E5:47:93:25:44:DE

            X509v3 Issuer Alternative Name: 
                <EMPTY>

            X509v3 Extended Key Usage: 
                TLS Web Server Authentication, TLS Web Client Authentication, Microsoft Server Gated Crypto, Netscape Server Gated Crypto
            X509v3 Basic Constraints: critical
                CA:FALSE
            X509v3 Key Usage: 
                Digital Signature, Non Repudiation, Key Encipherment
            Netscape Cert Type: 
                SSL Client, SSL Server
    Signature Algorithm: sha256WithRSAEncryption
        55:50:8b:a4:94:b5:50:ca:87:21:0a:25:aa:0f:37:0d:77:36:
        7f:6e:c3:d6:db:a9:57:7d:65:5c:35:93:19:e1:89:d8:4d:35:
        59:86:54:96:dd:a1:4d:d0:4e:f2:12:39:75:3e:ad:6d:78:54:
        c7:33:52:c6:cd:23:c7:28:ca:36:46:b6:a2:02:17:16:b8:00:
        2c:88:a8:dd:d3:4b:8b:cb:26:66:82:f4:0a:3c:c7:06:cf:bf:
        15:eb:b0:89:ba:79:54:a3:8f:9b:c5:fa:f9:8b:c1:d2:42:00:
        5a:71:77:b9:2a:8a:46:53:d8:8f:dc:c5:6a:81:e2:e6:83:74:
        2b:16:54:d1:fa:25:ef:87:d0:5c:e6:ea:63:fc:83:4e:61:70:
        7f:30:c3:3a:3b:94:ec:a2:bb:51:58:40:bb:6c:cc:e5:4c:67:
        fc:85:83:31:d2:db:6d:8d:0f:10:90:65:1d:6d:a7:01:78:b7:
        d6:ea:6d:39:02:15:b1:63:6c:55:6a:49:d2:14:a1:c9:85:e0:
        28:05:b4:e9:68:d9:0e:ca:e3:a5:b0:21:4f:25:71:39:43:d5:
        30:49:ad:d9:c3:c8:1f:46:18:74:f1:51:66:84:24:3e:12:f0:
        33:8b:34:eb:19:fb:8e:e5:47:28:2a:47:34:cd:6a:a0:8c:10:
        fa:b4:a8:18
-----BEGIN CERTIFICATE-----
MIIEIjCCAwqgAwIBAgICEAMwDQYJKoZIhvcNAQELBQAwTzELMAkGA1UEBhMCVVMx
EDAOBgNVBAgMB0Zsb3JpZGExEzARBgNVBAcMCkdhdG9yIFRvd24xDDAKBgNVBAoM
A01JRzELMAkGA1UECwwCQ0EwHhcNMTUxMTE3MTYwMzEyWhcNMTgxMTE2MTYwMzEy
WjBjMQswCQYDVQQGEwJVUzEQMA4GA1UECAwHRmxvcmlkYTETMBEGA1UEBwwKR2F0
b3IgVG93bjEMMAoGA1UECgwDTUlHMQ4wDAYDVQQLDAVhZ2VudDEPMA0GA1UEAwwG
YWdlbnQuMIIBIjANBgkqhkiG9w0BAQEFAAOCAQ8AMIIBCgKCAQEA+k1+ObvUh1ev
Wn0SamyL7Xq94AahC4YUQHo+z5JMR8i6duIuOgZnl75ftBwPt8Vcy9zWBg/InN5R
qi1xm7FribHhSwQDdAIoFq+0+uJuCyNmoizjGGMp/PRQZ3YIqiR4DnayV8T5qWC5
xI3ROz7UEVoA4Sovb6IMlpWZOAWIPxOZlgrK3oVQCxQ8WU6zV8xzw1vdJ6S+v+a7
B3BX7mQw4X+Iia5u4Qn/0cRSVq4gG6+Uih/if9udJbisBscOqj9oK4fejTp+eizG
vLyA/wc4rLhyXjg50M7tnYjIAuvfwiPWUsF64HND7XCFk3izUNSwcF3qyDIVW1rQ
ptWeVctcvQIDAQABo4HzMIHwMH8GA1UdIwR4MHaAFO4yTmdNPCkpGXvnGIBfUWiY
LIW7oVOkUTBPMQswCQYDVQQGEwJVUzEQMA4GA1UECAwHRmxvcmlkYTETMBEGA1UE
BwwKR2F0b3IgVG93bjEMMAoGA1UECgwDTUlHMQswCQYDVQQLDAJDQYIJALod5UeT
JUTeMAkGA1UdEgQCMAAwNAYDVR0lBC0wKwYIKwYBBQUHAwEGCCsGAQUFBwMCBgor
BgEEAYI3CgMDBglghkgBhvhCBAEwDAYDVR0TAQH/BAIwADALBgNVHQ8EBAMCBeAw
EQYJYIZIAYb4QgEBBAQDAgbAMA0GCSqGSIb3DQEBCwUAA4IBAQBVUIuklLVQyoch
CiWqDzcNdzZ/bsPW26lXfWVcNZMZ4YnYTTVZhlSW3aFN0E7yEjl1Pq1teFTHM1LG
zSPHKMo2RraiAhcWuAAsiKjd00uLyyZmgvQKPMcGz78V67CJunlUo4+bxfr5i8HS
QgBacXe5KopGU9iP3MVqgeLmg3QrFlTR+iXvh9Bc5upj/INOYXB/MMM6O5TsortR
WEC7bMzlTGf8hYMx0tttjQ8QkGUdbacBeLfW6m05AhWxY2xVaknSFKHJheAoBbTp
aNkOyuOlsCFPJXE5Q9UwSa3Zw8gfRhh08VFmhCQ+EvAzizTrGfuO5UcoKkc0zWqg
jBD6tKgY
-----END CERTIFICATE-----
