Certificate:
    Data:
        Version: 3 (0x2)
        Serial Number: 4097 (0x1001)
        Signature Algorithm: sha256WithRSAEncryption
        Issuer: C=US, ST=Florida, L=Gator Town, O=MIG, OU=CA
        Validity
            Not Before: Nov 17 16:03:11 2015 GMT
            Not After : Nov 16 16:03:11 2018 GMT
        Subject: C=US, ST=Florida, L=Gator Town, O=MIG, OU=scheduler, CN=scheduler.
        Subject Public Key Info:
            Public Key Algorithm: rsaEncryption
            RSA Public Key: (2048 bit)
                Modulus (2048 bit):
                    00:d1:67:42:17:bd:d2:32:33:88:82:84:66:3f:0d:
                    7f:01:77:c5:c2:04:bf:7f:22:13:b4:d4:b6:49:a0:
                    2c:c2:c1:42:31:d0:a2:50:60:ef:55:0b:75:2c:1b:
                    aa:da:00:a4:fd:21:3e:5d:7f:d8:1c:e6:c4:f1:b5:
                    3d:2e:50:eb:f5:be:59:26:ea:aa:60:bd:e0:bb:80:
                    6d:78:62:81:65:ba:cf:4e:19:6e:a5:26:1d:e6:3e:
                    23:e0:14:6d:19:d0:7b:cf:fa:32:2e:0c:6c:0e:cd:
                    19:52:e5:65:05:83:2d:02:08:ac:70:6e:4f:c2:09:
                    4c:63:d9:c3:a1:d4:f5:d2:28:ec:0e:82:d7:b8:51:
                    72:64:42:cb:e3:f8:02:7c:db:52:24:f0:5d:3d:30:
                    99:a6:78:f6:38:3c:41:f5:7e:58:59:92:e3:4f:4e:
                    62:25:bd:7d:46:c2:27:83:d3:ff:c1:f4:66:74:8c:
                    12:88:8a:74:73:c8:8c:6b:16:17:96:32:14:ab:e1:
                    7d:de:13:ba:6b:5f:ed:53:80:e0:75:eb:a3:81:cd:
                    35:d6:ed:bf:8c:99:a3:7f:4f:39:40:65:31:ea:b5:
                    d0:a3:32:07:5b:47:cc:e0:7e:1e:62:b0:75:62:35:
                    09:f3:96:1c:d6:fc:49:f9:fc:f7:1d:a4:1d:14:c0:
                    a0:f1
                Exponent: 65537 (0x10001)
        X509v3 extensions:
            X509v3 Authority Key Identifier: 
                keyid:EE:32:4E:67:4D:3C:29:29:19:7B:E7:18:80:5F:51:68:98:2C:85:BB
                DirName:/C=US/ST=Florida/L=Gator Town/O=MIG/OU=CA
                serial:BA:1D:E5:47:93:25:44:DE

            X509v3 Issuer Alternative Name: 
                <EMPTY>

            X509v3 Extended Key Usage: 
                TLS Web Server Authentication, TLS Web Client Authentication, Microsoft Server Gated Crypto, Netscape Server Gated Crypto
            X509v3 Basic Constraints: critical
                CA:FALSE
            X509v3 Key Usage: 
                Digital Signature, Non Repudiation, Key Encipherment
            Netscape Cert Type: 
                SSL Client, SSL Server
    Signature Algorithm: sha256WithRSAEncryption
        03:29:9e:db:12:16:23:d1:40:e9:a6:25:2d:31:86:7a:d4:d7:
        5d:06:fc:7c:09:3f:a5:0c:50:c7:7a:f6:07:02:73:bd:f4:b0:
        23:b8:87:b0:cf:07:b3:3d:c9:f8:21:76:19:13:3a:a2:d4:15:
        f1:f3:aa:ea:ca:c0:73:21:10:81:f3:ca:55:40:94:86:54:91:
        16:ca:50:6f:0b:a9:e6:03:8d:9d:9f:47:80:48:5f:ca:b2:96:
        69:ef:f4:90:b6:4b:18:53:c4:f3:3e:6b:4c:56:3a:39:e3:e5:
        d2:36:fe:e9:4d:b8:05:4b:1d:f2:12:77:39:e9:1d:f3:72:a9:
        b7:ac:f9:2c:df:f9:13:e0:5d:63:c5:09:f6:87:58:fe:f2:59:
        ce:9a:72:0a:ae:f0:48:32:df:bd:6c:2b:41:0b:4d:09:c8:d5:
        1e:ce:a0:f3:38:9d:56:cb:7c:4b:9e:28:cd:69:2a:b5:b8:b8:
        d7:d5:74:15:7a:9b:e1:2c:74:16:5f:2e:89:1e:56:ee:e8:8f:
        f0:4d:f5:0a:84:87:2a:ec:5d:fc:d9:07:79:e3:2a:be:72:79:
        1a:cf:9d:0b:44:b2:e3:83:a4:f3:10:8d:bd:a0:2d:ea:ca:84:
        38:ec:c0:0d:e8:34:12:f7:0a:ec:a7:4c:dd:bd:26:e9:a2:fd:
        ef:16:bb:24
-----BEGIN CERTIFICATE-----
MIIEKjCCAxKgAwIBAgICEAEwDQYJKoZIhvcNAQELBQAwTzELMAkGA1UEBhMCVVMx
EDAOBgNVBAgMB0Zsb3JpZGExEzARBgNVBAcMCkdhdG9yIFRvd24xDDAKBgNVBAoM
A01JRzELMAkGA1UECwwCQ0EwHhcNMTUxMTE3MTYwMzExWhcNMTgxMTE2MTYwMzEx
WjBrMQswCQYDVQQGEwJVUzEQMA4GA1UECAwHRmxvcmlkYTETMBEGA1UEBwwKR2F0
b3IgVG93bjEMMAoGA1UECgwDTUlHMRIwEAYDVQQLDAlzY2hlZHVsZXIxEzARBgNV
BAMMCnNjaGVkdWxlci4wggEiMA0GCSqGSIb3DQEBAQUAA4IBDwAwggEKAoIBAQDR
Z0IXvdIyM4iChGY/DX8Bd8XCBL9/IhO01LZJoCzCwUIx0KJQYO9VC3UsG6raAKT9
IT5df9gc5sTxtT0uUOv1vlkm6qpgveC7gG14YoFlus9OGW6lJh3mPiPgFG0Z0HvP
+jIuDGwOzRlS5WUFgy0CCKxwbk/CCUxj2cOh1PXSKOwOgte4UXJkQsvj+AJ821Ik
8F09MJmmePY4PEH1flhZkuNPTmIlvX1GwieD0//B9GZ0jBKIinRzyIxrFheWMhSr
4X3eE7prX+1TgOB166OBzTXW7b+MmaN/TzlAZTHqtdCjMgdbR8zgfh5isHViNQnz
lhzW/En5/PcdpB0UwKDxAgMBAAGjgfMwgfAwfwYDVR0jBHgwdoAU7jJOZ008KSkZ
e+cYgF9RaJgshbuhU6RRME8xCzAJBgNVBAYTAlVTMRAwDgYDVQQIDAdGbG9yaWRh
MRMwEQYDVQQHDApHYXRvciBUb3duMQwwCgYDVQQKDANNSUcxCzAJBgNVBAsMAkNB
ggkAuh3lR5MlRN4wCQYDVR0SBAIwADA0BgNVHSUELTArBggrBgEFBQcDAQYIKwYB
BQUHAwIGCisGAQQBgjcKAwMGCWCGSAGG+EIEATAMBgNVHRMBAf8EAjAAMAsGA1Ud
DwQEAwIF4DARBglghkgBhvhCAQEEBAMCBsAwDQYJKoZIhvcNAQELBQADggEBAAMp
ntsSFiPRQOmmJS0xhnrU110G/HwJP6UMUMd69gcCc730sCO4h7DPB7M9yfghdhkT
OqLUFfHzqurKwHMhEIHzylVAlIZUkRbKUG8LqeYDjZ2fR4BIX8qylmnv9JC2SxhT
xPM+a0xWOjnj5dI2/ulNuAVLHfISdznpHfNyqbes+Szf+RPgXWPFCfaHWP7yWc6a
cgqu8Egy371sK0ELTQnI1R7OoPM4nVbLfEueKM1pKrW4uNfVdBV6m+EsdBZfLoke
Vu7oj/BN9QqEhyrsXfzZB3njKr5yeRrPnQtEsuODpPMQjb2gLerKhDjswA3oNBL3
CuynTN29Jumi/e8WuyQ=
-----END CERTIFICATE-----
