Certificate:
    Data:
        Version: 3 (0x2)
        Serial Number: 4096 (0x1000)
        Signature Algorithm: sha256WithRSAEncryption
        Issuer: C=US, ST=Florida, L=Gator Town, O=MIG, OU=CA
        Validity
            Not Before: Nov 17 16:02:51 2015 GMT
            Not After : Nov 16 16:02:51 2018 GMT
        Subject: C=US, ST=Florida, L=Gator Town, O=MIG, OU=RabbitMQ Relay, CN=mig.example.com
        Subject Public Key Info:
            Public Key Algorithm: rsaEncryption
            RSA Public Key: (2048 bit)
                Modulus (2048 bit):
                    00:be:c2:6c:dd:2d:98:e1:93:21:f9:33:78:8c:13:
                    b1:65:a6:e5:d2:3f:5e:aa:0b:f5:8d:72:9c:89:3a:
                    68:02:60:9a:bd:51:84:ac:1e:ab:47:f9:3a:a5:02:
                    01:ee:33:2b:db:54:96:27:0d:18:65:7f:33:fa:47:
                    2e:b8:1e:48:03:c0:22:ed:1e:48:4d:74:09:33:83:
                    78:dd:2d:0a:e6:98:35:9f:c0:b2:de:d7:86:84:81:
                    56:97:fb:3b:1b:09:77:71:0e:ff:a7:10:2e:84:4c:
                    07:90:d6:d1:20:a3:9e:f5:1a:f7:57:18:62:2b:73:
                    5f:b9:c4:c7:75:d5:d6:9c:f5:73:33:8d:13:27:b7:
                    b8:22:d6:73:c8:b0:33:09:cb:1e:db:b1:81:15:ca:
                    be:b2:6e:71:8c:9f:8f:62:39:0a:ad:ee:57:c1:52:
                    97:57:0f:47:86:d1:1b:66:6b:9d:27:bc:18:79:40:
                    f0:f8:ec:a6:24:e2:35:3c:68:aa:9e:81:e5:7d:59:
                    ad:f5:2f:69:b1:76:b0:49:5f:ac:0c:3c:15:57:ea:
                    38:96:24:fa:5b:29:f7:09:3e:2d:1c:42:71:4e:08:
                    a9:56:90:46:5f:8f:e1:a1:09:08:75:2f:fd:c9:34:
                    1a:88:0e:0f:e0:59:aa:95:2a:88:9b:11:b9:38:43:
                    f6:c1
                Exponent: 65537 (0x10001)
        X509v3 extensions:
            X509v3 Authority Key Identifier: 
                keyid:EE:32:4E:67:4D:3C:29:29:19:7B:E7:18:80:5F:51:68:98:2C:85:BB
                DirName:/C=US/ST=Florida/L=Gator Town/O=MIG/OU=CA
                serial:BA:1D:E5:47:93:25:44:DE

            X509v3 Issuer Alternative Name: 
                <EMPTY>

            X509v3 Extended Key Usage: 
                TLS Web Server Authentication, TLS Web Client Authentication, Microsoft Server Gated Crypto, Netscape Server Gated Crypto
            X509v3 Basic Constraints: critical
                CA:FALSE
            X509v3 Key Usage: 
                Digital Signature, Non Repudiation, Key Encipherment
            Netscape Cert Type: 
                SSL Client, SSL Server
    Signature Algorithm: sha256WithRSAEncryption
        5e:2a:e7:88:03:79:3d:ad:8a:df:f5:14:08:28:e2:cd:39:cf:
        68:51:fb:84:1b:f7:68:76:39:13:3c:54:bb:e8:2d:b9:db:d1:
        91:a4:5b:15:fc:3b:37:2b:65:e0:1b:b3:ca:b0:c5:f1:87:42:
        a2:32:b5:5d:eb:7e:84:f6:e2:5d:99:c6:03:f1:5f:24:b1:2e:
        39:b8:50:5a:c8:18:ab:21:4b:0e:20:71:de:2b:2f:e1:ca:ae:
        4d:39:af:3c:26:23:83:4f:e5:e3:09:93:c7:ef:a1:bf:31:ce:
        a8:bd:d8:c6:3a:ce:c6:33:f2:56:28:58:33:f7:9b:d9:0c:98:
        d4:27:d4:b7:54:41:36:76:6a:eb:c0:16:b5:d8:9e:22:1f:34:
        f9:eb:16:62:0a:9e:3f:56:4f:a0:b0:4e:db:9f:51:a1:f2:f7:
        67:00:19:6d:2e:b1:e0:44:b6:b0:9a:61:f2:4e:81:18:6a:c9:
        78:b9:c7:a1:d8:b9:90:b0:58:0c:d6:e5:f6:6b:bf:74:1f:1d:
        e8:56:45:d8:29:6e:64:6b:32:e7:fc:4f:b2:fe:f0:b5:7f:25:
        db:9c:99:5e:1a:0c:2c:0b:40:30:43:8f:d6:db:eb:41:12:ca:
        8e:10:55:2a:7a:af:c9:dd:89:1c:a3:5d:63:9a:40:c2:a1:a0:
        a4:24:1f:2b
-----BEGIN CERTIFICATE-----
MIIENDCCAxygAwIBAgICEAAwDQYJKoZIhvcNAQELBQAwTzELMAkGA1UEBhMCVVMx
EDAOBgNVBAgMB0Zsb3JpZGExEzARBgNVBAcMCkdhdG9yIFRvd24xDDAKBgNVBAoM
A01JRzELMAkGA1UECwwCQ0EwHhcNMTUxMTE3MTYwMjUxWhcNMTgxMTE2MTYwMjUx
WjB1MQswCQYDVQQGEwJVUzEQMA4GA1UECAwHRmxvcmlkYTETMBEGA1UEBwwKR2F0
b3IgVG93bjEMMAoGA1UECgwDTUlHMRcwFQYDVQQLDA5SYWJiaXRNUSBSZWxheTEY
MBYGA1UEAwwPbWlnLmV4YW1wbGUuY29tMIIBIjANBgkqhkiG9w0BAQEFAAOCAQ8A
MIIBCgKCAQEAvsJs3S2Y4ZMh+TN4jBOxZabl0j9eqgv1jXKciTpoAmCavVGErB6r
R/k6pQIB7jMr21SWJw0YZX8z+kcuuB5IA8Ai7R5ITXQJM4N43S0K5pg1n8Cy3teG
hIFWl/s7Gwl3cQ7/pxAuhEwHkNbRIKOe9Rr3VxhiK3NfucTHddXWnPVzM40TJ7e4
ItZzyLAzCcse27GBFcq+sm5xjJ+PYjkKre5XwVKXVw9HhtEbZmudJ7wYeUDw+Oym
JOI1PGiqnoHlfVmt9S9psXawSV+sDDwVV+o4liT6Wyn3CT4tHEJxTgipVpBGX4/h
oQkIdS/9yTQaiA4P4FmqlSqImxG5OEP2wQIDAQABo4HzMIHwMH8GA1UdIwR4MHaA
FO4yTmdNPCkpGXvnGIBfUWiYLIW7oVOkUTBPMQswCQYDVQQGEwJVUzEQMA4GA1UE
CAwHRmxvcmlkYTETMBEGA1UEBwwKR2F0b3IgVG93bjEMMAoGA1UECgwDTUlHMQsw
CQYDVQQLDAJDQYIJALod5UeTJUTeMAkGA1UdEgQCMAAwNAYDVR0lBC0wKwYIKwYB
BQUHAwEGCCsGAQUFBwMCBgorBgEEAYI3CgMDBglghkgBhvhCBAEwDAYDVR0TAQH/
BAIwADALBgNVHQ8EBAMCBeAwEQYJYIZIAYb4QgEBBAQDAgbAMA0GCSqGSIb3DQEB
CwUAA4IBAQBeKueIA3k9rYrf9RQIKOLNOc9oUfuEG/dodjkTPFS76C2529GRpFsV
/Ds3K2XgG7PKsMXxh0KiMrVd636E9uJdmcYD8V8ksS45uFBayBirIUsOIHHeKy/h
yq5NOa88JiODT+XjCZPH76G/Mc6ovdjGOs7GM/JWKFgz95vZDJjUJ9S3VEE2dmrr
wBa12J4iHzT56xZiCp4/Vk+gsE7bn1Gh8vdnABltLrHgRLawmmHyToEYasl4uceh
2LmQsFgM1uX2a790Hx3oVkXYKW5kazLn/E+y/vC1fyXbnJleGgwsC0AwQ4/W2+tB
EsqOEFUqeq/J3Ykco11jmkDCoaCkJB8r
-----END CERTIFICATE-----
