Certificate:
    Data:
        Version: 3 (0x2)
        Serial Number: 4097 (0x1001)
        Signature Algorithm: sha256WithRSAEncryption
        Issuer: C=US, ST=Florida, L=Gator Town, O=MIG, OU=CA
        Validity
            Not Before: Nov 18 23:16:54 2015 GMT
            Not After : Nov 17 23:16:54 2018 GMT
        Subject: C=US, ST=Florida, L=Gator Town, O=MIG, OU=scheduler, CN=scheduler.
        Subject Public Key Info:
            Public Key Algorithm: rsaEncryption
            RSA Public Key: (2048 bit)
                Modulus (2048 bit):
                    00:d4:07:3b:d5:ae:9e:44:2a:70:70:a6:89:ee:ec:
                    10:ce:66:15:1f:ec:db:1a:cc:6f:20:95:78:4a:46:
                    61:33:dc:f4:fb:89:24:60:82:9b:92:c0:fd:70:86:
                    50:72:f7:96:36:2c:21:01:6f:0e:a0:f4:9b:35:ed:
                    f6:ef:83:fd:3e:89:18:6b:7b:b0:b9:e0:ae:64:48:
                    f4:c1:0f:0e:a9:9a:13:cc:61:58:4e:01:24:4d:cb:
                    3e:bb:cc:74:98:e2:66:7f:8e:ca:b9:f2:17:b6:c5:
                    0d:4e:72:7c:52:9c:3f:a9:c4:18:40:3f:e8:8c:eb:
                    71:e3:ce:1f:18:3d:fd:61:75:6b:05:fd:17:a3:66:
                    0a:ec:ae:c8:ad:33:52:58:cd:a1:84:22:4e:fe:f6:
                    b5:1e:08:b4:8f:8b:6a:28:7f:06:34:d3:6e:1f:b0:
                    64:f0:d0:21:b1:82:c4:75:9d:c5:a5:32:b4:68:24:
                    b8:ff:c9:42:64:2f:b3:00:fc:50:6a:db:86:b4:59:
                    36:8f:58:39:2e:ad:fd:77:42:55:f1:26:d4:83:98:
                    15:c9:43:e7:e1:a8:7c:47:55:46:05:1e:7b:21:bf:
                    52:30:d3:5d:6f:eb:1c:ff:4d:7e:ef:c7:e7:51:07:
                    bc:07:3e:54:de:a3:ba:b5:7e:ab:a8:b3:f1:91:a8:
                    1d:d5
                Exponent: 65537 (0x10001)
        X509v3 extensions:
            X509v3 Authority Key Identifier: 
                keyid:9C:F9:D2:4D:C0:D4:23:2A:E2:88:29:6E:5F:1D:07:10:46:A9:98:60
                DirName:/C=US/ST=Florida/L=Gator Town/O=MIG/OU=CA
                serial:BF:72:0E:AD:3F:70:30:E0

            X509v3 Issuer Alternative Name: 
                <EMPTY>

            X509v3 Extended Key Usage: 
                TLS Web Server Authentication, TLS Web Client Authentication, Microsoft Server Gated Crypto, Netscape Server Gated Crypto
            X509v3 Basic Constraints: critical
                CA:FALSE
            X509v3 Key Usage: 
                Digital Signature, Non Repudiation, Key Encipherment
            Netscape Cert Type: 
                SSL Client, SSL Server
    Signature Algorithm: sha256WithRSAEncryption
        7c:ca:72:de:02:01:db:60:e7:bf:a9:a6:65:d9:f5:8c:d1:ef:
        35:33:50:88:72:4f:5b:18:ce:a6:f7:d7:8e:6c:82:35:36:f5:
        9e:ef:f0:28:7c:71:48:1d:bd:63:8d:a2:1e:a5:3e:b7:17:a1:
        fd:3f:dc:44:da:7e:fd:02:47:35:9c:4c:00:23:7b:5b:49:e0:
        09:52:98:84:a5:64:1c:6d:0a:7c:46:4c:ca:14:7b:5f:bf:00:
        dd:a0:36:be:13:7b:78:ad:e6:94:09:e3:e2:81:6f:f0:03:13:
        1a:85:f0:43:a3:9c:a0:30:10:93:4b:a8:b2:89:8a:ac:1e:90:
        8f:0d:47:a3:04:5a:09:c3:90:db:1f:51:0d:a5:6c:3d:51:f3:
        02:7e:0d:9b:9b:f6:55:1f:c5:2c:93:39:a2:f1:53:79:73:a5:
        fd:d0:18:9d:0e:31:6c:6e:76:0c:d5:67:8e:c7:3e:1d:3a:2c:
        e0:ed:8d:e1:7a:c6:1b:05:5f:20:d4:43:26:b3:64:c1:6f:b7:
        26:8a:31:19:c2:73:5c:bb:39:cf:96:94:6c:df:fd:26:df:b9:
        57:2d:52:88:10:47:51:50:2b:50:aa:9a:d9:dc:61:c1:2e:fb:
        31:1c:d2:4f:8c:2f:58:85:15:fa:9f:37:6d:8d:54:a7:05:98:
        69:74:cd:64
-----BEGIN CERTIFICATE-----
MIIEKjCCAxKgAwIBAgICEAEwDQYJKoZIhvcNAQELBQAwTzELMAkGA1UEBhMCVVMx
EDAOBgNVBAgMB0Zsb3JpZGExEzARBgNVBAcMCkdhdG9yIFRvd24xDDAKBgNVBAoM
A01JRzELMAkGA1UECwwCQ0EwHhcNMTUxMTE4MjMxNjU0WhcNMTgxMTE3MjMxNjU0
WjBrMQswCQYDVQQGEwJVUzEQMA4GA1UECAwHRmxvcmlkYTETMBEGA1UEBwwKR2F0
b3IgVG93bjEMMAoGA1UECgwDTUlHMRIwEAYDVQQLDAlzY2hlZHVsZXIxEzARBgNV
BAMMCnNjaGVkdWxlci4wggEiMA0GCSqGSIb3DQEBAQUAA4IBDwAwggEKAoIBAQDU
BzvVrp5EKnBwponu7BDOZhUf7NsazG8glXhKRmEz3PT7iSRggpuSwP1whlBy95Y2
LCEBbw6g9Js17fbvg/0+iRhre7C54K5kSPTBDw6pmhPMYVhOASRNyz67zHSY4mZ/
jsq58he2xQ1OcnxSnD+pxBhAP+iM63Hjzh8YPf1hdWsF/RejZgrsrsitM1JYzaGE
Ik7+9rUeCLSPi2oofwY0024fsGTw0CGxgsR1ncWlMrRoJLj/yUJkL7MA/FBq24a0
WTaPWDkurf13QlXxJtSDmBXJQ+fhqHxHVUYFHnshv1Iw011v6xz/TX7vx+dRB7wH
PlTeo7q1fquos/GRqB3VAgMBAAGjgfMwgfAwfwYDVR0jBHgwdoAUnPnSTcDUIyri
iCluXx0HEEapmGChU6RRME8xCzAJBgNVBAYTAlVTMRAwDgYDVQQIDAdGbG9yaWRh
MRMwEQYDVQQHDApHYXRvciBUb3duMQwwCgYDVQQKDANNSUcxCzAJBgNVBAsMAkNB
ggkAv3IOrT9wMOAwCQYDVR0SBAIwADA0BgNVHSUELTArBggrBgEFBQcDAQYIKwYB
BQUHAwIGCisGAQQBgjcKAwMGCWCGSAGG+EIEATAMBgNVHRMBAf8EAjAAMAsGA1Ud
DwQEAwIF4DARBglghkgBhvhCAQEEBAMCBsAwDQYJKoZIhvcNAQELBQADggEBAHzK
ct4CAdtg57+ppmXZ9YzR7zUzUIhyT1sYzqb3145sgjU29Z7v8Ch8cUgdvWONoh6l
PrcXof0/3ETafv0CRzWcTAAje1tJ4AlSmISlZBxtCnxGTMoUe1+/AN2gNr4Te3it
5pQJ4+KBb/ADExqF8EOjnKAwEJNLqLKJiqwekI8NR6MEWgnDkNsfUQ2lbD1R8wJ+
DZub9lUfxSyTOaLxU3lzpf3QGJ0OMWxudgzVZ47HPh06LODtjeF6xhsFXyDUQyaz
ZMFvtyaKMRnCc1y7Oc+WlGzf/SbfuVctUogQR1FQK1CqmtncYcEu+zEc0k+ML1iF
FfqfN22NVKcFmGl0zWQ=
-----END CERTIFICATE-----
